; Function Attrs: mustprogress uwtable
define void @_ZN3fmt3v114fileC2ENS0_18basic_cstring_viewIcEEi(ptr noundef nonnull writeonly align 4 captures(none) dereferenceable(4) initializes((0, 4)) %0, ptr %1, i32 noundef %2) unnamed_addr #6 align 2 personality ptr @__gxx_personality_v0 {
  %4 = alloca %"struct.fmt::v11::detail::format_arg_store", align 16
  br label %5

5:                                                ; preds = %8, %3
  %6 = tail call i32 (ptr, i32, ...) @open(ptr noundef %1, i32 noundef %2, i32 noundef 438)
  store i32 %6, ptr %0, align 4, !tbaa !22
  %7 = icmp eq i32 %6, -1
  br i1 %7, label %8, label %.critedge

8:                                                ; preds = %5
  %9 = tail call ptr @__errno_location() #16
  %10 = load i32, ptr %9, align 4, !tbaa !9
  %11 = icmp eq i32 %10, 4
  br i1 %11, label %5, label %12, !llvm.loop !24

12:                                               ; preds = %8
  %13 = tail call ptr @__cxa_allocate_exception(i64 32) #17
  %14 = load i32, ptr %9, align 4, !tbaa !9
  call void @llvm.lifetime.start.p0(i64 16, ptr nonnull %4) #17, !noalias !25
  %15 = ptrtoint ptr %1 to i64
  store i64 %15, ptr %4, align 16, !noalias !25
  invoke void @_ZN3fmt3v1113vsystem_errorEiNS0_17basic_string_viewIcEENS0_17basic_format_argsINS0_7contextEEE(ptr dead_on_unwind writable sret(%"class.std::system_error") align 8 %13, i32 noundef %14, ptr nonnull @.str.2, i64 19, i64 12, ptr nonnull %4)
          to label %17 unwind label %.thread15

.thread15:                                        ; preds = %12
  %16 = landingpad { ptr, i32 }
          cleanup
  call void @__cxa_free_exception(ptr %13) #17
  resume { ptr, i32 } %16

17:                                               ; preds = %12
  call void @llvm.lifetime.end.p0(i64 16, ptr nonnull %4) #17, !noalias !25
  call void @__cxa_throw(ptr %13, ptr nonnull @_ZTISt12system_error, ptr nonnull @_ZNSt12system_errorD1Ev) #19
  unreachable

.critedge:                                        ; preds = %5
  ret void
}